; Function Attrs: nounwind uwtable
define range(i32 0, 2) i32 @ossl_quic_wire_decode_frame_data_blocked(ptr noundef captures(none) %0, ptr noundef writeonly captures(none) %1) local_unnamed_addr #2 {
  %3 = getelementptr i8, ptr %0, i64 8
  %.val.i.i.i = load i64, ptr %3, align 8, !tbaa !52
  %4 = icmp eq i64 %.val.i.i.i, 0
  br i1 %4, label %expect_frame_header.exit.thread, label %5

5:                                                ; preds = %2
  %6 = load ptr, ptr %0, align 8, !tbaa !54
  %7 = load i8, ptr %6, align 1, !tbaa !55
  %8 = lshr i8 %7, 6
  %9 = zext nneg i8 %8 to i32
  %10 = shl nuw nsw i32 1, %9
  %11 = zext nneg i32 %10 to i64
  %12 = icmp ult i64 %.val.i.i.i, %11
  br i1 %12, label %expect_frame_header.exit.thread, label %expect_frame_header.exit

expect_frame_header.exit:                         ; preds = %5
  %13 = tail call i64 @ossl_quic_vlint_decode_unchecked(ptr noundef nonnull %6) #12
  %14 = load ptr, ptr %0, align 8, !tbaa !54
  %15 = getelementptr inbounds nuw i8, ptr %14, i64 %11
  store ptr %15, ptr %0, align 8, !tbaa !54
  %16 = load i64, ptr %3, align 8, !tbaa !52
  %17 = sub i64 %16, %11
  store i64 %17, ptr %3, align 8, !tbaa !52
  %.not2.i.not = icmp ne i64 %13, 20
  %18 = icmp eq i64 %16, %11
  %or.cond = select i1 %.not2.i.not, i1 true, i1 %18
  br i1 %or.cond, label %expect_frame_header.exit.thread, label %19

19:                                               ; preds = %expect_frame_header.exit
  %20 = load i8, ptr %15, align 1, !tbaa !55
  %21 = lshr i8 %20, 6
  %22 = zext nneg i8 %21 to i32
  %23 = shl nuw nsw i32 1, %22
  %24 = zext nneg i32 %23 to i64
  %25 = icmp ult i64 %17, %24
  br i1 %25, label %expect_frame_header.exit.thread, label %PACKET_get_quic_vlint.exit

PACKET_get_quic_vlint.exit:                       ; preds = %19
  %26 = tail call i64 @ossl_quic_vlint_decode_unchecked(ptr noundef nonnull %15) #12
  store i64 %26, ptr %1, align 8, !tbaa !56
  %27 = load ptr, ptr %0, align 8, !tbaa !54
  %28 = getelementptr inbounds nuw i8, ptr %27, i64 %24
  store ptr %28, ptr %0, align 8, !tbaa !54
  %29 = load i64, ptr %3, align 8, !tbaa !52
  %30 = sub i64 %29, %24
  store i64 %30, ptr %3, align 8, !tbaa !52
  br label %expect_frame_header.exit.thread

expect_frame_header.exit.thread:                  ; preds = %5, %2, %PACKET_get_quic_vlint.exit, %19, %expect_frame_header.exit
  %.0 = phi i32 [ 0, %expect_frame_header.exit ], [ 1, %PACKET_get_quic_vlint.exit ], [ 0, %19 ], [ 0, %2 ], [ 0, %5 ]
  ret i32 %.0
}